target datalayout = "e-m:e-p270:32:32-p271:32:32-p272:64:64-i64:64-i128:128-f80:128-n8:16:32:64-S128"
target triple = "x86_64-pc-linux-gnu"

@.str.1 = private unnamed_addr constant [13 x i8] c"basebackup.c\00", align 1
@.str.111 = private unnamed_addr constant [29 x i8] c"could not read file \22%s\22: %m\00", align 1
@__func__.basebackup_read_file = private unnamed_addr constant [21 x i8] c"basebackup_read_file\00", align 1
@.str.112 = private unnamed_addr constant [42 x i8] c"could not read file \22%s\22: read %zd of %zu\00", align 1
@my_wait_event_info = external global ptr, align 8

; Function Attrs: inlinehint nounwind uwtable
define internal void @pgstat_report_wait_end() #4 {
  %1 = load ptr, ptr @my_wait_event_info, align 8
  store volatile i32 0, ptr %1, align 4
  ret void
}

; Function Attrs: inlinehint nounwind uwtable
define internal void @pgstat_report_wait_start(i32 noundef %0) #4 {
  %2 = alloca i32, align 4
  store i32 %0, ptr %2, align 4
  %3 = load i32, ptr %2, align 4
  %4 = load ptr, ptr @my_wait_event_info, align 8
  store volatile i32 %3, ptr %4, align 4
  ret void
}

; Function Attrs: nounwind uwtable
define internal i64 @basebackup_read_file(i32 noundef %0, ptr noundef %1, i64 noundef %2, i64 noundef %3, ptr noundef %4, i1 noundef zeroext %5) #0 {
  %7 = alloca i32, align 4
  %8 = alloca ptr, align 8
  %9 = alloca i64, align 8
  %10 = alloca i64, align 8
  %11 = alloca ptr, align 8
  %12 = alloca i8, align 1
  %13 = alloca i64, align 8
  store i32 %0, ptr %7, align 4
  store ptr %1, ptr %8, align 8
  store i64 %2, ptr %9, align 8
  store i64 %3, ptr %10, align 8
  store ptr %4, ptr %11, align 8
  %14 = zext i1 %5 to i8
  store i8 %14, ptr %12, align 1
  call void @llvm.lifetime.start.p0(i64 8, ptr %13) #13
  call void @pgstat_report_wait_start(i32 noundef 167772160)
  %15 = load i32, ptr %7, align 4
  %16 = load ptr, ptr %8, align 8
  %17 = load i64, ptr %9, align 8
  %18 = load i64, ptr %10, align 8
  %19 = call i64 @pread(i32 noundef %15, ptr noundef %16, i64 noundef %17, i64 noundef %18)
  store i64 %19, ptr %13, align 8
  call void @pgstat_report_wait_end()
  %20 = load i64, ptr %13, align 8
  %21 = icmp slt i64 %20, 0
  br i1 %21, label %22, label %35

22:                                               ; preds = %6
  br label %23

23:                                               ; preds = %22
  br i1 true, label %24, label %26

24:                                               ; preds = %23
  %25 = call zeroext i1 @errstart_cold(i32 noundef 21, ptr noundef null) #14
  br i1 %25, label %28, label %32

26:                                               ; preds = %23
  %27 = call zeroext i1 @errstart(i32 noundef 21, ptr noundef null)
  br i1 %27, label %28, label %32

28:                                               ; preds = %26, %24
  %29 = call i32 @errcode_for_file_access()
  %30 = load ptr, ptr %11, align 8
  %31 = call i32 (ptr, ...) @errmsg(ptr noundef @.str.111, ptr noundef %30)
  call void @errfinish(ptr noundef @.str.1, i32 noundef 2127, ptr noundef @__func__.basebackup_read_file)
  br label %32

32:                                               ; preds = %28, %26, %24
  unreachable

33:                                               ; No predecessors!
  br label %34

34:                                               ; preds = %33
  br label %35

35:                                               ; preds = %34, %6
  %36 = load i8, ptr %12, align 1, !range !4, !noundef !5
  %37 = trunc i8 %36 to i1
  br i1 %37, label %60, label %38

38:                                               ; preds = %35
  %39 = load i64, ptr %13, align 8
  %40 = icmp sgt i64 %39, 0
  br i1 %40, label %41, label %60

41:                                               ; preds = %38
  %42 = load i64, ptr %13, align 8
  %43 = load i64, ptr %9, align 8
  %44 = icmp ne i64 %42, %43
  br i1 %44, label %45, label %60

45:                                               ; preds = %41
  br label %46

46:                                               ; preds = %45
  br i1 true, label %47, label %49

47:                                               ; preds = %46
  %48 = call zeroext i1 @errstart_cold(i32 noundef 21, ptr noundef null) #14
  br i1 %48, label %51, label %57

49:                                               ; preds = %46
  %50 = call zeroext i1 @errstart(i32 noundef 21, ptr noundef null)
  br i1 %50, label %51, label %57

51:                                               ; preds = %49, %47
  %52 = call i32 @errcode_for_file_access()
  %53 = load ptr, ptr %11, align 8
  %54 = load i64, ptr %13, align 8
  %55 = load i64, ptr %9, align 8
  %56 = call i32 (ptr, ...) @errmsg(ptr noundef @.str.112, ptr noundef %53, i64 noundef %54, i64 noundef %55)
  call void @errfinish(ptr noundef @.str.1, i32 noundef 2132, ptr noundef @__func__.basebackup_read_file)
  br label %57

57:                                               ; preds = %51, %49, %47
  unreachable

58:                                               ; No predecessors!
  br label %59

59:                                               ; preds = %58
  br label %60

60:                                               ; preds = %59, %41, %38, %35
  %61 = load i64, ptr %13, align 8
  call void @llvm.lifetime.end.p0(i64 8, ptr %13) #13
  ret i64 %61
}