; Function Attrs: nounwind uwtable
define internal fastcc range(i64 0, -9223372036854775808) i64 @basebackup_read_file(i32 noundef range(i32 0, -2147483648) %0, ptr noundef captures(none) %1, i64 noundef %2, i64 noundef %3, ptr noundef %4, i1 noundef zeroext %5) unnamed_addr #0 {
  %7 = load ptr, ptr @my_wait_event_info, align 8
  store volatile i32 167772160, ptr %7, align 4
  %8 = tail call i64 @pread(i32 noundef %0, ptr noundef %1, i64 noundef %2, i64 noundef %3) #19
  %9 = load ptr, ptr @my_wait_event_info, align 8
  store volatile i32 0, ptr %9, align 4
  %10 = icmp slt i64 %8, 0
  br i1 %10, label %11, label %15

11:                                               ; preds = %6
  %12 = tail call zeroext i1 @errstart_cold(i32 noundef 21, ptr noundef null) #20
  tail call void @llvm.assume(i1 %12)
  %13 = tail call i32 @errcode_for_file_access() #19
  %14 = tail call i32 (ptr, ...) @errmsg(ptr noundef nonnull @.str.111, ptr noundef %4) #19
  tail call void @errfinish(ptr noundef nonnull @.str.1, i32 noundef 2127, ptr noundef nonnull @__func__.basebackup_read_file) #19
  unreachable

15:                                               ; preds = %6
  %16 = icmp eq i64 %8, 0
  %or.cond.not = or i1 %5, %16
  %.not = icmp eq i64 %8, %2
  %or.cond = or i1 %.not, %or.cond.not
  br i1 %or.cond, label %21, label %17

17:                                               ; preds = %15
  %18 = tail call zeroext i1 @errstart_cold(i32 noundef 21, ptr noundef null) #20
  tail call void @llvm.assume(i1 %18)
  %19 = tail call i32 @errcode_for_file_access() #19
  %20 = tail call i32 (ptr, ...) @errmsg(ptr noundef nonnull @.str.112, ptr noundef %4, i64 noundef %8, i64 noundef %2) #19
  tail call void @errfinish(ptr noundef nonnull @.str.1, i32 noundef 2132, ptr noundef nonnull @__func__.basebackup_read_file) #19
  unreachable

21:                                               ; preds = %15
  ret i64 %8
}